target datalayout = "e-m:e-p270:32:32-p271:32:32-p272:64:64-i64:64-i128:128-f80:128-n8:16:32:64-S128"
target triple = "x86_64-pc-linux-gnu"

%struct.mbedtls_asn1_buf = type { i32, i64, ptr }
%struct.mbedtls_x509_csr = type { %struct.mbedtls_asn1_buf, %struct.mbedtls_asn1_buf, i32, %struct.mbedtls_asn1_buf, %struct.mbedtls_asn1_named_data, %struct.mbedtls_pk_context, i32, i8, %struct.mbedtls_asn1_sequence, i32, %struct.mbedtls_asn1_buf, %struct.mbedtls_asn1_buf, i32, i32, ptr }
%struct.mbedtls_asn1_named_data = type { %struct.mbedtls_asn1_buf, %struct.mbedtls_asn1_buf, ptr, i8 }
%struct.mbedtls_pk_context = type { ptr, ptr }
%struct.mbedtls_asn1_sequence = type { %struct.mbedtls_asn1_buf, ptr }

; Function Attrs: nounwind uwtable
define hidden void @mbedtls_x509_csr_free(ptr noundef %0) #0 {
  %2 = alloca ptr, align 8
  store ptr %0, ptr %2, align 8, !tbaa !3
  %3 = load ptr, ptr %2, align 8, !tbaa !3
  %4 = icmp eq ptr %3, null
  br i1 %4, label %5, label %6

5:                                                ; preds = %1
  br label %36

6:                                                ; preds = %1
  %7 = load ptr, ptr %2, align 8, !tbaa !3
  %8 = getelementptr inbounds nuw %struct.mbedtls_x509_csr, ptr %7, i32 0, i32 5
  call void @mbedtls_pk_free(ptr noundef %8)
  %9 = load ptr, ptr %2, align 8, !tbaa !3
  %10 = getelementptr inbounds nuw %struct.mbedtls_x509_csr, ptr %9, i32 0, i32 14
  %11 = load ptr, ptr %10, align 8, !tbaa !36
  call void @free(ptr noundef %11) #9
  %12 = load ptr, ptr %2, align 8, !tbaa !3
  %13 = getelementptr inbounds nuw %struct.mbedtls_x509_csr, ptr %12, i32 0, i32 4
  %14 = getelementptr inbounds nuw %struct.mbedtls_asn1_named_data, ptr %13, i32 0, i32 2
  %15 = load ptr, ptr %14, align 8, !tbaa !40
  call void @mbedtls_asn1_free_named_data_list_shallow(ptr noundef %15)
  %16 = load ptr, ptr %2, align 8, !tbaa !3
  %17 = getelementptr inbounds nuw %struct.mbedtls_x509_csr, ptr %16, i32 0, i32 8
  %18 = getelementptr inbounds nuw %struct.mbedtls_asn1_sequence, ptr %17, i32 0, i32 1
  %19 = load ptr, ptr %18, align 8, !tbaa !41
  call void @mbedtls_asn1_sequence_free(ptr noundef %19)
  %20 = load ptr, ptr %2, align 8, !tbaa !3
  %21 = getelementptr inbounds nuw %struct.mbedtls_x509_csr, ptr %20, i32 0, i32 0
  %22 = getelementptr inbounds nuw %struct.mbedtls_asn1_buf, ptr %21, i32 0, i32 2
  %23 = load ptr, ptr %22, align 8, !tbaa !15
  %24 = icmp ne ptr %23, null
  br i1 %24, label %25, label %34

25:                                               ; preds = %6
  %26 = load ptr, ptr %2, align 8, !tbaa !3
  %27 = getelementptr inbounds nuw %struct.mbedtls_x509_csr, ptr %26, i32 0, i32 0
  %28 = getelementptr inbounds nuw %struct.mbedtls_asn1_buf, ptr %27, i32 0, i32 2
  %29 = load ptr, ptr %28, align 8, !tbaa !15
  %30 = load ptr, ptr %2, align 8, !tbaa !3
  %31 = getelementptr inbounds nuw %struct.mbedtls_x509_csr, ptr %30, i32 0, i32 0
  %32 = getelementptr inbounds nuw %struct.mbedtls_asn1_buf, ptr %31, i32 0, i32 1
  %33 = load i64, ptr %32, align 8, !tbaa !24
  call void @mbedtls_zeroize_and_free(ptr noundef %29, i64 noundef %33)
  br label %34

34:                                               ; preds = %25, %6
  %35 = load ptr, ptr %2, align 8, !tbaa !3
  call void @mbedtls_platform_zeroize(ptr noundef %35, i64 noundef 272)
  br label %36

36:                                               ; preds = %34, %5
  ret void
}