; Function Attrs: nounwind uwtable
define hidden void @mbedtls_x509_csr_free(ptr noundef %0) local_unnamed_addr #0 {
  %2 = icmp eq ptr %0, null
  br i1 %2, label %17, label %3

3:                                                ; preds = %1
  %4 = getelementptr inbounds nuw i8, ptr %0, i64 144
  tail call void @mbedtls_pk_free(ptr noundef nonnull %4) #10
  %5 = getelementptr inbounds nuw i8, ptr %0, i64 264
  %6 = load ptr, ptr %5, align 8, !tbaa !21
  tail call void @free(ptr noundef %6) #10
  %7 = getelementptr inbounds nuw i8, ptr %0, i64 128
  %8 = load ptr, ptr %7, align 8, !tbaa !22
  tail call void @mbedtls_asn1_free_named_data_list_shallow(ptr noundef %8) #10
  %9 = getelementptr inbounds nuw i8, ptr %0, i64 192
  %10 = load ptr, ptr %9, align 8, !tbaa !23
  tail call void @mbedtls_asn1_sequence_free(ptr noundef %10) #10
  %11 = getelementptr inbounds nuw i8, ptr %0, i64 16
  %12 = load ptr, ptr %11, align 8, !tbaa !10
  %.not = icmp eq ptr %12, null
  br i1 %.not, label %16, label %13

13:                                               ; preds = %3
  %14 = getelementptr inbounds nuw i8, ptr %0, i64 8
  %15 = load i64, ptr %14, align 8, !tbaa !20
  tail call void @mbedtls_zeroize_and_free(ptr noundef nonnull %12, i64 noundef %15) #10
  br label %16

16:                                               ; preds = %13, %3
  tail call void @mbedtls_platform_zeroize(ptr noundef nonnull %0, i64 noundef 272) #10
  br label %17

17:                                               ; preds = %1, %16
  ret void
}